target datalayout = "e-m:e-p270:32:32-p271:32:32-p272:64:64-i64:64-i128:128-f80:128-n8:16:32:64-S128"
target triple = "x86_64-pc-linux-gnu"

%"class.duckdb_snappy::SnappyDecompressor" = type <{ ptr, ptr, ptr, ptr, i32, i8, [5 x i8], [6 x i8] }>

@_ZZN13duckdb_snappyL18LeftShiftOverflowsEhjE5masks = internal constant [32 x i8] c"\00\00\00\00\00\00\00\00\00\00\00\00\00\00\00\00\00\00\00\00\00\00\00\00\00\80\C0\E0\F0\F8\FC\FE", align 16

; Function Attrs: inlinehint mustprogress nounwind uwtable
define internal noundef zeroext i1 @_ZN13duckdb_snappyL18LeftShiftOverflowsEhj(i8 noundef zeroext %0, i32 noundef %1) #3 {
  %3 = alloca i8, align 1
  %4 = alloca i32, align 4
  store i8 %0, ptr %3, align 1, !tbaa !16
  store i32 %1, ptr %4, align 4, !tbaa !12
  %5 = load i8, ptr %3, align 1, !tbaa !16
  %6 = zext i8 %5 to i32
  %7 = load i32, ptr %4, align 4, !tbaa !12
  %8 = zext i32 %7 to i64
  %9 = getelementptr inbounds nuw [32 x i8], ptr @_ZZN13duckdb_snappyL18LeftShiftOverflowsEhjE5masks, i64 0, i64 %8
  %10 = load i8, ptr %9, align 1, !tbaa !16
  %11 = zext i8 %10 to i32
  %12 = and i32 %6, %11
  %13 = icmp ne i32 %12, 0
  ret i1 %13
}

; Function Attrs: mustprogress nounwind uwtable
define linkonce_odr void @_ZN13duckdb_snappy18SnappyDecompressorD2Ev(ptr noundef nonnull align 8 dereferenceable(42) %0) unnamed_addr #0 comdat align 2 personality ptr @__gxx_personality_v0 {
  %2 = alloca ptr, align 8
  store ptr %0, ptr %2, align 8, !tbaa !59
  %3 = load ptr, ptr %2, align 8
  %4 = getelementptr inbounds nuw %"class.duckdb_snappy::SnappyDecompressor", ptr %3, i32 0, i32 0
  %5 = load ptr, ptr %4, align 8, !tbaa !65
  %6 = getelementptr inbounds nuw %"class.duckdb_snappy::SnappyDecompressor", ptr %3, i32 0, i32 4
  %7 = load i32, ptr %6, align 8, !tbaa !66
  %8 = zext i32 %7 to i64
  %9 = load ptr, ptr %5, align 8, !tbaa !67
  %10 = getelementptr inbounds ptr, ptr %9, i64 4
  %11 = load ptr, ptr %10, align 8
  invoke void %11(ptr noundef nonnull align 8 dereferenceable(8) %5, i64 noundef %8)
          to label %12 unwind label %13

12:                                               ; preds = %1
  ret void

13:                                               ; preds = %1
  %14 = landingpad { ptr, i32 }
          catch ptr null
  %15 = extractvalue { ptr, i32 } %14, 0
  call void @__clang_call_terminate(ptr %15) #20
  unreachable
}

; Function Attrs: mustprogress uwtable
define linkonce_odr noundef zeroext i1 @_ZN13duckdb_snappy18SnappyDecompressor22ReadUncompressedLengthEPj(ptr noundef nonnull align 8 dereferenceable(42) %0, ptr noundef %1) #1 comdat align 2 {
  %3 = alloca i1, align 1
  %4 = alloca ptr, align 8
  %5 = alloca ptr, align 8
  %6 = alloca i32, align 4
  %7 = alloca i32, align 4
  %8 = alloca i64, align 8
  %9 = alloca ptr, align 8
  %10 = alloca i8, align 1
  %11 = alloca i32, align 4
  store ptr %0, ptr %4, align 8, !tbaa !59
  store ptr %1, ptr %5, align 8, !tbaa !14
  %12 = load ptr, ptr %4, align 8
  %13 = load ptr, ptr %5, align 8, !tbaa !14
  store i32 0, ptr %13, align 4, !tbaa !12
  call void @llvm.lifetime.start.p0(i64 4, ptr %6) #17
  store i32 0, ptr %6, align 4, !tbaa !12
  br label %14

14:                                               ; preds = %62, %2
  br label %15

15:                                               ; preds = %14
  %16 = load i32, ptr %6, align 4, !tbaa !12
  %17 = icmp uge i32 %16, 32
  br i1 %17, label %18, label %19

18:                                               ; preds = %15
  store i1 false, ptr %3, align 1
  store i32 1, ptr %7, align 4
  br label %64

19:                                               ; preds = %15
  call void @llvm.lifetime.start.p0(i64 8, ptr %8) #17
  call void @llvm.lifetime.start.p0(i64 8, ptr %9) #17
  %20 = getelementptr inbounds nuw %"class.duckdb_snappy::SnappyDecompressor", ptr %12, i32 0, i32 0
  %21 = load ptr, ptr %20, align 8, !tbaa !65
  %22 = load ptr, ptr %21, align 8, !tbaa !67
  %23 = getelementptr inbounds ptr, ptr %22, i64 3
  %24 = load ptr, ptr %23, align 8
  %25 = call noundef ptr %24(ptr noundef nonnull align 8 dereferenceable(8) %21, ptr noundef %8)
  store ptr %25, ptr %9, align 8, !tbaa !7
  %26 = load i64, ptr %8, align 8, !tbaa !3
  %27 = icmp eq i64 %26, 0
  br i1 %27, label %28, label %29

28:                                               ; preds = %19
  store i1 false, ptr %3, align 1
  store i32 1, ptr %7, align 4
  br label %60

29:                                               ; preds = %19
  call void @llvm.lifetime.start.p0(i64 1, ptr %10) #17
  %30 = load ptr, ptr %9, align 8, !tbaa !7
  %31 = load i8, ptr %30, align 1, !tbaa !16
  store i8 %31, ptr %10, align 1, !tbaa !16
  %32 = getelementptr inbounds nuw %"class.duckdb_snappy::SnappyDecompressor", ptr %12, i32 0, i32 0
  %33 = load ptr, ptr %32, align 8, !tbaa !65
  %34 = load ptr, ptr %33, align 8, !tbaa !67
  %35 = getelementptr inbounds ptr, ptr %34, i64 4
  %36 = load ptr, ptr %35, align 8
  call void %36(ptr noundef nonnull align 8 dereferenceable(8) %33, i64 noundef 1)
  call void @llvm.lifetime.start.p0(i64 4, ptr %11) #17
  %37 = load i8, ptr %10, align 1, !tbaa !16
  %38 = zext i8 %37 to i32
  %39 = and i32 %38, 127
  store i32 %39, ptr %11, align 4, !tbaa !12
  %40 = load i32, ptr %11, align 4, !tbaa !12
  %41 = trunc i32 %40 to i8
  %42 = load i32, ptr %6, align 4, !tbaa !12
  %43 = call noundef zeroext i1 @_ZN13duckdb_snappyL18LeftShiftOverflowsEhj(i8 noundef zeroext %41, i32 noundef %42)
  br i1 %43, label %44, label %45

44:                                               ; preds = %29
  store i1 false, ptr %3, align 1
  store i32 1, ptr %7, align 4
  br label %59

45:                                               ; preds = %29
  %46 = load i32, ptr %11, align 4, !tbaa !12
  %47 = load i32, ptr %6, align 4, !tbaa !12
  %48 = shl i32 %46, %47
  %49 = load ptr, ptr %5, align 8, !tbaa !14
  %50 = load i32, ptr %49, align 4, !tbaa !12
  %51 = or i32 %50, %48
  store i32 %51, ptr %49, align 4, !tbaa !12
  %52 = load i8, ptr %10, align 1, !tbaa !16
  %53 = zext i8 %52 to i32
  %54 = icmp slt i32 %53, 128
  br i1 %54, label %55, label %56

55:                                               ; preds = %45
  store i32 3, ptr %7, align 4
  br label %59

56:                                               ; preds = %45
  %57 = load i32, ptr %6, align 4, !tbaa !12
  %58 = add i32 %57, 7
  store i32 %58, ptr %6, align 4, !tbaa !12
  store i32 0, ptr %7, align 4
  br label %59

59:                                               ; preds = %56, %55, %44
  call void @llvm.lifetime.end.p0(i64 4, ptr %11) #17
  call void @llvm.lifetime.end.p0(i64 1, ptr %10) #17
  br label %60

60:                                               ; preds = %59, %28
  call void @llvm.lifetime.end.p0(i64 8, ptr %9) #17
  call void @llvm.lifetime.end.p0(i64 8, ptr %8) #17
  %61 = load i32, ptr %7, align 4
  switch i32 %61, label %64 [
    i32 0, label %62
    i32 3, label %63
  ]

62:                                               ; preds = %60
  br label %14, !llvm.loop !72

63:                                               ; preds = %60
  store i1 true, ptr %3, align 1
  store i32 1, ptr %7, align 4
  br label %64

64:                                               ; preds = %63, %60, %18
  call void @llvm.lifetime.end.p0(i64 4, ptr %6) #17
  %65 = load i1, ptr %3, align 1
  ret i1 %65
}

; Function Attrs: mustprogress nounwind uwtable
define linkonce_odr void @_ZN13duckdb_snappy18SnappyDecompressorC2EPNS_6SourceE(ptr noundef nonnull align 8 dereferenceable(42) %0, ptr noundef %1) unnamed_addr #0 comdat align 2 {
  %3 = alloca ptr, align 8
  %4 = alloca ptr, align 8
  store ptr %0, ptr %3, align 8, !tbaa !59
  store ptr %1, ptr %4, align 8, !tbaa !71
  %5 = load ptr, ptr %3, align 8
  %6 = getelementptr inbounds nuw %"class.duckdb_snappy::SnappyDecompressor", ptr %5, i32 0, i32 0
  %7 = load ptr, ptr %4, align 8, !tbaa !71
  store ptr %7, ptr %6, align 8, !tbaa !65
  %8 = getelementptr inbounds nuw %"class.duckdb_snappy::SnappyDecompressor", ptr %5, i32 0, i32 1
  store ptr null, ptr %8, align 8, !tbaa !61
  %9 = getelementptr inbounds nuw %"class.duckdb_snappy::SnappyDecompressor", ptr %5, i32 0, i32 2
  store ptr null, ptr %9, align 8, !tbaa !64
  %10 = getelementptr inbounds nuw %"class.duckdb_snappy::SnappyDecompressor", ptr %5, i32 0, i32 4
  store i32 0, ptr %10, align 8, !tbaa !66
  %11 = getelementptr inbounds nuw %"class.duckdb_snappy::SnappyDecompressor", ptr %5, i32 0, i32 5
  store i8 0, ptr %11, align 4, !tbaa !69
  ret void
}

; Function Attrs: mustprogress uwtable
define noundef zeroext i1 @_ZN13duckdb_snappy21GetUncompressedLengthEPNS_6SourceEPj(ptr noundef %0, ptr noundef %1) #1 personality ptr @__gxx_personality_v0 {
  %3 = alloca ptr, align 8
  %4 = alloca ptr, align 8
  %5 = alloca %"class.duckdb_snappy::SnappyDecompressor", align 8
  %6 = alloca ptr, align 8
  %7 = alloca i32, align 4
  store ptr %0, ptr %3, align 8, !tbaa !71
  store ptr %1, ptr %4, align 8, !tbaa !14
  call void @llvm.lifetime.start.p0(i64 48, ptr %5) #17
  %8 = load ptr, ptr %3, align 8, !tbaa !71
  call void @_ZN13duckdb_snappy18SnappyDecompressorC2EPNS_6SourceE(ptr noundef nonnull align 8 dereferenceable(42) %5, ptr noundef %8)
  %9 = load ptr, ptr %4, align 8, !tbaa !14
  %10 = invoke noundef zeroext i1 @_ZN13duckdb_snappy18SnappyDecompressor22ReadUncompressedLengthEPj(ptr noundef nonnull align 8 dereferenceable(42) %5, ptr noundef %9)
          to label %11 unwind label %12

11:                                               ; preds = %2
  call void @_ZN13duckdb_snappy18SnappyDecompressorD2Ev(ptr noundef nonnull align 8 dereferenceable(42) %5) #17
  call void @llvm.lifetime.end.p0(i64 48, ptr %5) #17
  ret i1 %10

12:                                               ; preds = %2
  %13 = landingpad { ptr, i32 }
          cleanup
  %14 = extractvalue { ptr, i32 } %13, 0
  store ptr %14, ptr %6, align 8
  %15 = extractvalue { ptr, i32 } %13, 1
  store i32 %15, ptr %7, align 4
  call void @_ZN13duckdb_snappy18SnappyDecompressorD2Ev(ptr noundef nonnull align 8 dereferenceable(42) %5) #17
  call void @llvm.lifetime.end.p0(i64 48, ptr %5) #17
  br label %16

16:                                               ; preds = %12
  %17 = load ptr, ptr %6, align 8
  %18 = load i32, ptr %7, align 4
  %19 = insertvalue { ptr, i32 } poison, ptr %17, 0
  %20 = insertvalue { ptr, i32 } %19, i32 %18, 1
  resume { ptr, i32 } %20
}