; Function Attrs: mustprogress uwtable
define noundef zeroext i1 @_ZN13duckdb_snappy21GetUncompressedLengthEPNS_6SourceEPj(ptr noundef %0, ptr noundef captures(none) initializes((0, 4)) %1) local_unnamed_addr #3 personality ptr @__gxx_personality_v0 {
  %3 = alloca i64, align 8
  store i32 0, ptr %1, align 4, !tbaa !17
  br label %4

4:                                                ; preds = %27, %2
  %indvars.iv.i = phi i64 [ 0, %2 ], [ %indvars.iv.next.i, %27 ]
  call void @llvm.lifetime.start.p0(i64 8, ptr nonnull %3) #27
  %5 = load ptr, ptr %0, align 8, !tbaa !49
  %6 = getelementptr inbounds nuw i8, ptr %5, i64 24
  %7 = load ptr, ptr %6, align 8
  %8 = invoke noundef ptr %7(ptr noundef nonnull align 8 dereferenceable(8) %0, ptr noundef nonnull %3)
          to label %.noexc unwind label %35

.noexc:                                           ; preds = %4
  %9 = load i64, ptr %3, align 8, !tbaa !6
  %10 = icmp eq i64 %9, 0
  br i1 %10, label %.loopexit.sink.split.i, label %11

11:                                               ; preds = %.noexc
  %12 = load i8, ptr %8, align 1, !tbaa !3
  %13 = load ptr, ptr %0, align 8, !tbaa !49
  %14 = getelementptr inbounds nuw i8, ptr %13, i64 32
  %15 = load ptr, ptr %14, align 8
  invoke void %15(ptr noundef nonnull align 8 dereferenceable(8) %0, i64 noundef 1)
          to label %.noexc3 unwind label %35

.noexc3:                                          ; preds = %11
  %16 = and i8 %12, 127
  %17 = getelementptr inbounds nuw [32 x i8], ptr @_ZZN13duckdb_snappyL18LeftShiftOverflowsEhjE5masks, i64 0, i64 %indvars.iv.i
  %18 = load i8, ptr %17, align 1, !tbaa !3
  %19 = and i8 %18, %16
  %.not.i = icmp eq i8 %19, 0
  br i1 %.not.i, label %20, label %.loopexit.sink.split.i

20:                                               ; preds = %.noexc3
  %21 = zext nneg i8 %16 to i32
  %22 = trunc nuw nsw i64 %indvars.iv.i to i32
  %23 = shl i32 %21, %22
  %24 = load i32, ptr %1, align 4, !tbaa !17
  %25 = or i32 %24, %23
  store i32 %25, ptr %1, align 4, !tbaa !17
  %26 = icmp sgt i8 %12, -1
  br i1 %26, label %.loopexit.sink.split.i, label %27

27:                                               ; preds = %20
  %indvars.iv.next.i = add nuw nsw i64 %indvars.iv.i, 7
  call void @llvm.lifetime.end.p0(i64 8, ptr nonnull %3) #27
  %28 = icmp samesign ugt i64 %indvars.iv.i, 24
  br i1 %28, label %_ZN13duckdb_snappy18SnappyDecompressor22ReadUncompressedLengthEPj.exit, label %4

.loopexit.sink.split.i:                           ; preds = %20, %.noexc3, %.noexc
  %.1.ph.i = phi i1 [ false, %.noexc ], [ false, %.noexc3 ], [ true, %20 ]
  call void @llvm.lifetime.end.p0(i64 8, ptr nonnull %3) #27
  br label %_ZN13duckdb_snappy18SnappyDecompressor22ReadUncompressedLengthEPj.exit

_ZN13duckdb_snappy18SnappyDecompressor22ReadUncompressedLengthEPj.exit: ; preds = %27, %.loopexit.sink.split.i
  %.1.i = phi i1 [ %.1.ph.i, %.loopexit.sink.split.i ], [ false, %27 ]
  %29 = load ptr, ptr %0, align 8, !tbaa !49
  %30 = getelementptr inbounds nuw i8, ptr %29, i64 32
  %31 = load ptr, ptr %30, align 8
  invoke void %31(ptr noundef nonnull align 8 dereferenceable(8) %0, i64 noundef 0)
          to label %_ZN13duckdb_snappy18SnappyDecompressorD2Ev.exit unwind label %32

32:                                               ; preds = %_ZN13duckdb_snappy18SnappyDecompressor22ReadUncompressedLengthEPj.exit
  %33 = landingpad { ptr, i32 }
          catch ptr null
  %34 = extractvalue { ptr, i32 } %33, 0
  call void @__clang_call_terminate(ptr %34) #28
  unreachable

_ZN13duckdb_snappy18SnappyDecompressorD2Ev.exit:  ; preds = %_ZN13duckdb_snappy18SnappyDecompressor22ReadUncompressedLengthEPj.exit
  ret i1 %.1.i

35:                                               ; preds = %11, %4
  %36 = landingpad { ptr, i32 }
          cleanup
  %37 = load ptr, ptr %0, align 8, !tbaa !49
  %38 = getelementptr inbounds nuw i8, ptr %37, i64 32
  %39 = load ptr, ptr %38, align 8
  invoke void %39(ptr noundef nonnull align 8 dereferenceable(8) %0, i64 noundef 0)
          to label %_ZN13duckdb_snappy18SnappyDecompressorD2Ev.exit4 unwind label %40

40:                                               ; preds = %35
  %41 = landingpad { ptr, i32 }
          catch ptr null
  %42 = extractvalue { ptr, i32 } %41, 0
  call void @__clang_call_terminate(ptr %42) #28
  unreachable

_ZN13duckdb_snappy18SnappyDecompressorD2Ev.exit4: ; preds = %35
  resume { ptr, i32 } %36
}